; ModuleID = '56/508.c'
source_filename = "56/508.c"
target datalayout = "e-m:e-p270:32:32-p271:32:32-p272:64:64-i64:64-f80:128-n8:16:32:64-S128"
target triple = "x86_64-pc-linux-gnu"

@.str = private unnamed_addr constant [3 x i8] c"%d\00", align 1
@.str.1 = private unnamed_addr constant [4 x i8] c"%d\0A\00", align 1

; Function Attrs: noinline nounwind uwtable
define dso_local i32 @main() #0 {
  %1 = alloca i32, align 4
  %2 = alloca i32, align 4
  %3 = alloca i32, align 4
  %4 = alloca i32, align 4
  %5 = alloca i32, align 4
  %6 = alloca i32, align 4
  %7 = alloca i32, align 4
  %8 = alloca i32, align 4
  store i32 0, i32* %1, align 4
  %9 = call i32 (i8*, ...) @__isoc99_scanf(i8* getelementptr inbounds ([3 x i8], [3 x i8]* @.str, i64 0, i64 0), i32* %2)
  %10 = load i32, i32* %2, align 4
  %11 = sdiv i32 %10, 10000
  store i32 %11, i32* %4, align 4
  %12 = load i32, i32* %2, align 4
  %13 = load i32, i32* %4, align 4
  %14 = mul nsw i32 %13, 10000
  %15 = sub nsw i32 %12, %14
  %16 = sdiv i32 %15, 1000
  store i32 %16, i32* %5, align 4
  %17 = load i32, i32* %2, align 4
  %18 = load i32, i32* %4, align 4
  %19 = mul nsw i32 %18, 10000
  %20 = sub nsw i32 %17, %19
  %21 = load i32, i32* %5, align 4
  %22 = mul nsw i32 %21, 1000
  %23 = sub nsw i32 %20, %22
  %24 = sdiv i32 %23, 100
  store i32 %24, i32* %6, align 4
  %25 = load i32, i32* %2, align 4
  %26 = load i32, i32* %4, align 4
  %27 = mul nsw i32 %26, 10000
  %28 = sub nsw i32 %25, %27
  %29 = load i32, i32* %5, align 4
  %30 = mul nsw i32 %29, 1000
  %31 = sub nsw i32 %28, %30
  %32 = load i32, i32* %6, align 4
  %33 = mul nsw i32 %32, 100
  %34 = sub nsw i32 %31, %33
  %35 = sdiv i32 %34, 10
  store i32 %35, i32* %7, align 4
  %36 = load i32, i32* %2, align 4
  %37 = srem i32 %36, 10
  store i32 %37, i32* %8, align 4
  %38 = load i32, i32* %4, align 4
  %39 = icmp ne i32 %38, 0
  br i1 %39, label %40, label %66

40:                                               ; preds = %0
  %41 = load i32, i32* %5, align 4
  %42 = icmp ne i32 %41, 0
  br i1 %42, label %43, label %66

43:                                               ; preds = %40
  %44 = load i32, i32* %6, align 4
  %45 = icmp ne i32 %44, 0
  br i1 %45, label %46, label %66

46:                                               ; preds = %43
  %47 = load i32, i32* %7, align 4
  %48 = icmp ne i32 %47, 0
  br i1 %48, label %49, label %66

49:                                               ; preds = %46
  %50 = load i32, i32* %8, align 4
  %51 = icmp ne i32 %50, 0
  br i1 %51, label %52, label %66

52:                                               ; preds = %49
  %53 = load i32, i32* %8, align 4
  %54 = mul nsw i32 %53, 10000
  %55 = load i32, i32* %7, align 4
  %56 = mul nsw i32 %55, 1000
  %57 = add nsw i32 %54, %56
  %58 = load i32, i32* %6, align 4
  %59 = mul nsw i32 %58, 100
  %60 = add nsw i32 %57, %59
  %61 = load i32, i32* %5, align 4
  %62 = mul nsw i32 %61, 10
  %63 = add nsw i32 %60, %62
  %64 = load i32, i32* %4, align 4
  %65 = add nsw i32 %63, %64
  store i32 %65, i32* %3, align 4
  br label %66

66:                                               ; preds = %52, %49, %46, %43, %40, %0
  %67 = load i32, i32* %4, align 4
  %68 = icmp eq i32 %67, 0
  br i1 %68, label %69, label %92

69:                                               ; preds = %66
  %70 = load i32, i32* %5, align 4
  %71 = icmp ne i32 %70, 0
  br i1 %71, label %72, label %92

72:                                               ; preds = %69
  %73 = load i32, i32* %6, align 4
  %74 = icmp ne i32 %73, 0
  br i1 %74, label %75, label %92

75:                                               ; preds = %72
  %76 = load i32, i32* %7, align 4
  %77 = icmp ne i32 %76, 0
  br i1 %77, label %78, label %92

78:                                               ; preds = %75
  %79 = load i32, i32* %8, align 4
  %80 = icmp ne i32 %79, 0
  br i1 %80, label %81, label %92

81:                                               ; preds = %78
  %82 = load i32, i32* %8, align 4
  %83 = mul nsw i32 %82, 1000
  %84 = load i32, i32* %7, align 4
  %85 = mul nsw i32 %84, 100
  %86 = add nsw i32 %83, %85
  %87 = load i32, i32* %6, align 4
  %88 = mul nsw i32 %87, 10
  %89 = add nsw i32 %86, %88
  %90 = load i32, i32* %5, align 4
  %91 = add nsw i32 %89, %90
  store i32 %91, i32* %3, align 4
  br label %92

92:                                               ; preds = %81, %78, %75, %72, %69, %66
  %93 = load i32, i32* %4, align 4
  %94 = icmp eq i32 %93, 0
  br i1 %94, label %95, label %115

95:                                               ; preds = %92
  %96 = load i32, i32* %5, align 4
  %97 = icmp eq i32 %96, 0
  br i1 %97, label %98, label %115

98:                                               ; preds = %95
  %99 = load i32, i32* %6, align 4
  %100 = icmp ne i32 %99, 0
  br i1 %100, label %101, label %115

101:                                              ; preds = %98
  %102 = load i32, i32* %7, align 4
  %103 = icmp ne i32 %102, 0
  br i1 %103, label %104, label %115

104:                                              ; preds = %101
  %105 = load i32, i32* %8, align 4
  %106 = icmp ne i32 %105, 0
  br i1 %106, label %107, label %115

107:                                              ; preds = %104
  %108 = load i32, i32* %8, align 4
  %109 = mul nsw i32 %108, 100
  %110 = load i32, i32* %7, align 4
  %111 = mul nsw i32 %110, 10
  %112 = add nsw i32 %109, %111
  %113 = load i32, i32* %6, align 4
  %114 = add nsw i32 %112, %113
  store i32 %114, i32* %3, align 4
  br label %115

115:                                              ; preds = %107, %104, %101, %98, %95, %92
  %116 = load i32, i32* %4, align 4
  %117 = icmp eq i32 %116, 0
  br i1 %117, label %118, label %135

118:                                              ; preds = %115
  %119 = load i32, i32* %5, align 4
  %120 = icmp eq i32 %119, 0
  br i1 %120, label %121, label %135

121:                                              ; preds = %118
  %122 = load i32, i32* %6, align 4
  %123 = icmp eq i32 %122, 0
  br i1 %123, label %124, label %135

124:                                              ; preds = %121
  %125 = load i32, i32* %7, align 4
  %126 = icmp ne i32 %125, 0
  br i1 %126, label %127, label %135

127:                                              ; preds = %124
  %128 = load i32, i32* %8, align 4
  %129 = icmp ne i32 %128, 0
  br i1 %129, label %130, label %135

130:                                              ; preds = %127
  %131 = load i32, i32* %8, align 4
  %132 = mul nsw i32 %131, 10
  %133 = load i32, i32* %7, align 4
  %134 = add nsw i32 %132, %133
  store i32 %134, i32* %3, align 4
  br label %135

135:                                              ; preds = %130, %127, %124, %121, %118, %115
  %136 = load i32, i32* %4, align 4
  %137 = icmp eq i32 %136, 0
  br i1 %137, label %138, label %152

138:                                              ; preds = %135
  %139 = load i32, i32* %5, align 4
  %140 = icmp eq i32 %139, 0
  br i1 %140, label %141, label %152

141:                                              ; preds = %138
  %142 = load i32, i32* %6, align 4
  %143 = icmp eq i32 %142, 0
  br i1 %143, label %144, label %152

144:                                              ; preds = %141
  %145 = load i32, i32* %7, align 4
  %146 = icmp eq i32 %145, 0
  br i1 %146, label %147, label %152

147:                                              ; preds = %144
  %148 = load i32, i32* %8, align 4
  %149 = icmp ne i32 %148, 0
  br i1 %149, label %150, label %152

150:                                              ; preds = %147
  %151 = load i32, i32* %8, align 4
  store i32 %151, i32* %3, align 4
  br label %152

152:                                              ; preds = %150, %147, %144, %141, %138, %135
  %153 = load i32, i32* %3, align 4
  %154 = call i32 (i8*, ...) @printf(i8* getelementptr inbounds ([4 x i8], [4 x i8]* @.str.1, i64 0, i64 0), i32 %153)
  ret i32 0
}

declare dso_local i32 @__isoc99_scanf(i8*, ...) #1

declare dso_local i32 @printf(i8*, ...) #1


!llvm.module.flags = !{!0}
!llvm.ident = !{!1}

!0 = !{i32 1, !"wchar_size", i32 4}
!1 = !{!"clang version 10.0.0-4ubuntu1 "}
